target datalayout = "e-m:e-p270:32:32-p271:32:32-p272:64:64-i64:64-i128:128-f80:128-n8:16:32:64-S128"
target triple = "x86_64-pc-linux-gnu"

%struct.Aig_Man_t_ = type { ptr, ptr, ptr, ptr, ptr, ptr, ptr, %struct.Aig_Obj_t_, i32, i32, i32, i32, i32, i32, [7 x i32], i32, ptr, i32, ptr, i32, ptr, i32, i32, i32, ptr, i32, i32, i32, i32, i32, ptr, ptr, i32, ptr, ptr, i32, ptr, ptr, i32, i32, i32, ptr, ptr, ptr, ptr, ptr, ptr, ptr, ptr, ptr, ptr, ptr, ptr, ptr, ptr, i32, ptr, ptr, ptr, ptr, i32, i64, i64, i64, ptr, ptr }
%struct.Aig_Obj_t_ = type { %union.anon, ptr, ptr, i64, i32, i32, %union.anon.0 }
%union.anon = type { ptr }
%union.anon.0 = type { ptr }
%struct.Vec_Ptr_t_ = type { i32, i32, ptr }
%struct.Fra_Ssw_t_ = type { i32, i32, i32, i32, i32, i32, i32, i32, i32, i32, i32, i32, i32, i32, i32, i32, float }

@.str.23 = private unnamed_addr constant [15 x i8] c"Original AIG: \00", align 1
@.str.24 = private unnamed_addr constant [15 x i8] c"Reduced  AIG: \00", align 1
@.str.25 = private unnamed_addr constant [7 x i8] c".pairs\00", align 1
@.str.26 = private unnamed_addr constant [2 x i8] c"w\00", align 1
@.str.27 = private unnamed_addr constant [10 x i8] c"%d %d %c\0A\00", align 1
@.str.28 = private unnamed_addr constant [65 x i8] c"Result: %d pairs of seq equiv nodes are written into file \22%s\22.\0A\00", align 1

; Function Attrs: inlinehint nounwind uwtable
define internal i32 @Aig_ObjPhase(ptr noundef %0) #3 {
  %2 = alloca ptr, align 8
  store ptr %0, ptr %2, align 8, !tbaa !42
  %3 = load ptr, ptr %2, align 8, !tbaa !42
  %4 = getelementptr inbounds nuw %struct.Aig_Obj_t_, ptr %3, i32 0, i32 3
  %5 = load i64, ptr %4, align 8
  %6 = lshr i64 %5, 3
  %7 = and i64 %6, 1
  %8 = trunc i64 %7 to i32
  ret i32 %8
}

; Function Attrs: inlinehint nounwind uwtable
define internal ptr @Vec_PtrEntry(ptr noundef %0, i32 noundef %1) #3 {
  %3 = alloca ptr, align 8
  %4 = alloca i32, align 4
  store ptr %0, ptr %3, align 8, !tbaa !52
  store i32 %1, ptr %4, align 4, !tbaa !26
  %5 = load ptr, ptr %3, align 8, !tbaa !52
  %6 = getelementptr inbounds nuw %struct.Vec_Ptr_t_, ptr %5, i32 0, i32 2
  %7 = load ptr, ptr %6, align 8, !tbaa !53
  %8 = load i32, ptr %4, align 4, !tbaa !26
  %9 = sext i32 %8 to i64
  %10 = getelementptr inbounds ptr, ptr %7, i64 %9
  %11 = load ptr, ptr %10, align 8, !tbaa !55
  ret ptr %11
}

; Function Attrs: inlinehint nounwind uwtable
define internal i32 @Vec_PtrSize(ptr noundef %0) #3 {
  %2 = alloca ptr, align 8
  store ptr %0, ptr %2, align 8, !tbaa !52
  %3 = load ptr, ptr %2, align 8, !tbaa !52
  %4 = getelementptr inbounds nuw %struct.Vec_Ptr_t_, ptr %3, i32 0, i32 1
  %5 = load i32, ptr %4, align 4, !tbaa !56
  ret i32 %5
}

; Function Attrs: nounwind uwtable
define i32 @Fra_FraigInductionTest(ptr noundef %0, ptr noundef %1) #0 {
  %3 = alloca i32, align 4
  %4 = alloca ptr, align 8
  %5 = alloca ptr, align 8
  %6 = alloca ptr, align 8
  %7 = alloca ptr, align 8
  %8 = alloca ptr, align 8
  %9 = alloca ptr, align 8
  %10 = alloca ptr, align 8
  %11 = alloca ptr, align 8
  %12 = alloca ptr, align 8
  %13 = alloca i32, align 4
  %14 = alloca i32, align 4
  %15 = alloca i32, align 4
  store ptr %0, ptr %4, align 8, !tbaa !71
  store ptr %1, ptr %5, align 8, !tbaa !81
  call void @llvm.lifetime.start.p0(i64 8, ptr %6) #12
  call void @llvm.lifetime.start.p0(i64 8, ptr %7) #12
  call void @llvm.lifetime.start.p0(i64 8, ptr %8) #12
  call void @llvm.lifetime.start.p0(i64 8, ptr %9) #12
  call void @llvm.lifetime.start.p0(i64 8, ptr %10) #12
  call void @llvm.lifetime.start.p0(i64 8, ptr %11) #12
  call void @llvm.lifetime.start.p0(i64 8, ptr %12) #12
  call void @llvm.lifetime.start.p0(i64 4, ptr %13) #12
  call void @llvm.lifetime.start.p0(i64 4, ptr %14) #12
  store i32 0, ptr %14, align 4, !tbaa !26
  %16 = load ptr, ptr %4, align 8, !tbaa !71
  %17 = call ptr @Saig_ManReadBlif(ptr noundef %16)
  store ptr %17, ptr %8, align 8, !tbaa !24
  %18 = load ptr, ptr %8, align 8, !tbaa !24
  %19 = icmp eq ptr %18, null
  br i1 %19, label %20, label %21

20:                                               ; preds = %2
  store i32 0, ptr %3, align 4
  store i32 1, ptr %15, align 4
  br label %122

21:                                               ; preds = %2
  %22 = load ptr, ptr %8, align 8, !tbaa !24
  %23 = load ptr, ptr %5, align 8, !tbaa !81
  %24 = call ptr @Fra_FraigInduction(ptr noundef %22, ptr noundef %23)
  store ptr %24, ptr %9, align 8, !tbaa !24
  %25 = load ptr, ptr %9, align 8, !tbaa !24
  %26 = icmp eq ptr %25, null
  br i1 %26, label %27, label %29

27:                                               ; preds = %21
  %28 = load ptr, ptr %8, align 8, !tbaa !24
  call void @Aig_ManStop(ptr noundef %28)
  store i32 0, ptr %3, align 4
  store i32 1, ptr %15, align 4
  br label %122

29:                                               ; preds = %21
  %30 = load ptr, ptr %5, align 8, !tbaa !81
  %31 = getelementptr inbounds nuw %struct.Fra_Ssw_t_, ptr %30, i32 0, i32 13
  %32 = load i32, ptr %31, align 4, !tbaa !86
  %33 = icmp ne i32 %32, 0
  br i1 %33, label %34, label %39

34:                                               ; preds = %29
  %35 = call i32 (ptr, ...) @printf(ptr noundef @.str.23)
  %36 = load ptr, ptr %8, align 8, !tbaa !24
  call void @Aig_ManPrintStats(ptr noundef %36)
  %37 = call i32 (ptr, ...) @printf(ptr noundef @.str.24)
  %38 = load ptr, ptr %9, align 8, !tbaa !24
  call void @Aig_ManPrintStats(ptr noundef %38)
  br label %39

39:                                               ; preds = %34, %29
  %40 = load ptr, ptr %9, align 8, !tbaa !24
  call void @Aig_ManStop(ptr noundef %40)
  %41 = load ptr, ptr %8, align 8, !tbaa !24
  %42 = getelementptr inbounds nuw %struct.Aig_Man_t_, ptr %41, i32 0, i32 36
  %43 = load ptr, ptr %42, align 8, !tbaa !162
  store ptr %43, ptr %12, align 8, !tbaa !93
  %44 = load ptr, ptr %4, align 8, !tbaa !71
  %45 = call ptr @Aig_FileNameGenericAppend(ptr noundef %44, ptr noundef @.str.25)
  store ptr %45, ptr %7, align 8, !tbaa !71
  %46 = load ptr, ptr %7, align 8, !tbaa !71
  %47 = call noalias ptr @fopen(ptr noundef %46, ptr noundef @.str.26)
  store ptr %47, ptr %6, align 8, !tbaa !156
  store i32 0, ptr %13, align 4, !tbaa !26
  br label %48

48:                                               ; preds = %106, %39
  %49 = load i32, ptr %13, align 4, !tbaa !26
  %50 = load ptr, ptr %8, align 8, !tbaa !24
  %51 = getelementptr inbounds nuw %struct.Aig_Man_t_, ptr %50, i32 0, i32 4
  %52 = load ptr, ptr %51, align 8, !tbaa !66
  %53 = call i32 @Vec_PtrSize(ptr noundef %52)
  %54 = icmp slt i32 %49, %53
  br i1 %54, label %55, label %61

55:                                               ; preds = %48
  %56 = load ptr, ptr %8, align 8, !tbaa !24
  %57 = getelementptr inbounds nuw %struct.Aig_Man_t_, ptr %56, i32 0, i32 4
  %58 = load ptr, ptr %57, align 8, !tbaa !66
  %59 = load i32, ptr %13, align 4, !tbaa !26
  %60 = call ptr @Vec_PtrEntry(ptr noundef %58, i32 noundef %59)
  store ptr %60, ptr %10, align 8, !tbaa !42
  br label %61

61:                                               ; preds = %55, %48
  %62 = phi i1 [ false, %48 ], [ true, %55 ]
  br i1 %62, label %63, label %109

63:                                               ; preds = %61
  %64 = load ptr, ptr %10, align 8, !tbaa !42
  %65 = icmp eq ptr %64, null
  br i1 %65, label %66, label %67

66:                                               ; preds = %63
  br label %105

67:                                               ; preds = %63
  %68 = load ptr, ptr %8, align 8, !tbaa !24
  %69 = getelementptr inbounds nuw %struct.Aig_Man_t_, ptr %68, i32 0, i32 31
  %70 = load ptr, ptr %69, align 8, !tbaa !163
  %71 = load ptr, ptr %10, align 8, !tbaa !42
  %72 = getelementptr inbounds nuw %struct.Aig_Obj_t_, ptr %71, i32 0, i32 5
  %73 = load i32, ptr %72, align 4, !tbaa !50
  %74 = sext i32 %73 to i64
  %75 = getelementptr inbounds ptr, ptr %70, i64 %74
  %76 = load ptr, ptr %75, align 8, !tbaa !42
  store ptr %76, ptr %11, align 8, !tbaa !42
  %77 = icmp ne ptr %76, null
  br i1 %77, label %78, label %104

78:                                               ; preds = %67
  %79 = load ptr, ptr %6, align 8, !tbaa !156
  %80 = load ptr, ptr %12, align 8, !tbaa !93
  %81 = load ptr, ptr %10, align 8, !tbaa !42
  %82 = getelementptr inbounds nuw %struct.Aig_Obj_t_, ptr %81, i32 0, i32 5
  %83 = load i32, ptr %82, align 4, !tbaa !50
  %84 = sext i32 %83 to i64
  %85 = getelementptr inbounds i32, ptr %80, i64 %84
  %86 = load i32, ptr %85, align 4, !tbaa !26
  %87 = load ptr, ptr %12, align 8, !tbaa !93
  %88 = load ptr, ptr %11, align 8, !tbaa !42
  %89 = getelementptr inbounds nuw %struct.Aig_Obj_t_, ptr %88, i32 0, i32 5
  %90 = load i32, ptr %89, align 4, !tbaa !50
  %91 = sext i32 %90 to i64
  %92 = getelementptr inbounds i32, ptr %87, i64 %91
  %93 = load i32, ptr %92, align 4, !tbaa !26
  %94 = load ptr, ptr %10, align 8, !tbaa !42
  %95 = call i32 @Aig_ObjPhase(ptr noundef %94)
  %96 = load ptr, ptr %11, align 8, !tbaa !42
  %97 = call i32 @Aig_ObjPhase(ptr noundef %96)
  %98 = xor i32 %95, %97
  %99 = icmp ne i32 %98, 0
  %100 = select i1 %99, i32 45, i32 43
  %101 = call i32 (ptr, ptr, ...) @fprintf(ptr noundef %79, ptr noundef @.str.27, i32 noundef %86, i32 noundef %93, i32 noundef %100) #12
  %102 = load i32, ptr %14, align 4, !tbaa !26
  %103 = add nsw i32 %102, 1
  store i32 %103, ptr %14, align 4, !tbaa !26
  br label %104

104:                                              ; preds = %78, %67
  br label %105

105:                                              ; preds = %104, %66
  br label %106

106:                                              ; preds = %105
  %107 = load i32, ptr %13, align 4, !tbaa !26
  %108 = add nsw i32 %107, 1
  store i32 %108, ptr %13, align 4, !tbaa !26
  br label %48, !llvm.loop !164

109:                                              ; preds = %61
  %110 = load ptr, ptr %6, align 8, !tbaa !156
  %111 = call i32 @fclose(ptr noundef %110)
  %112 = load ptr, ptr %5, align 8, !tbaa !81
  %113 = getelementptr inbounds nuw %struct.Fra_Ssw_t_, ptr %112, i32 0, i32 13
  %114 = load i32, ptr %113, align 4, !tbaa !86
  %115 = icmp ne i32 %114, 0
  br i1 %115, label %116, label %120

116:                                              ; preds = %109
  %117 = load i32, ptr %14, align 4, !tbaa !26
  %118 = load ptr, ptr %7, align 8, !tbaa !71
  %119 = call i32 (ptr, ...) @printf(ptr noundef @.str.28, i32 noundef %117, ptr noundef %118)
  br label %120

120:                                              ; preds = %116, %109
  %121 = load ptr, ptr %8, align 8, !tbaa !24
  call void @Aig_ManStop(ptr noundef %121)
  store i32 1, ptr %3, align 4
  store i32 1, ptr %15, align 4
  br label %122

122:                                              ; preds = %120, %27, %20
  call void @llvm.lifetime.end.p0(i64 4, ptr %14) #12
  call void @llvm.lifetime.end.p0(i64 4, ptr %13) #12
  call void @llvm.lifetime.end.p0(i64 8, ptr %12) #12
  call void @llvm.lifetime.end.p0(i64 8, ptr %11) #12
  call void @llvm.lifetime.end.p0(i64 8, ptr %10) #12
  call void @llvm.lifetime.end.p0(i64 8, ptr %9) #12
  call void @llvm.lifetime.end.p0(i64 8, ptr %8) #12
  call void @llvm.lifetime.end.p0(i64 8, ptr %7) #12
  call void @llvm.lifetime.end.p0(i64 8, ptr %6) #12
  %123 = load i32, ptr %3, align 4
  ret i32 %123
}