; Function Attrs: nounwind uwtable
define range(i32 0, 2) i32 @Fra_FraigInductionTest(ptr noundef %0, ptr noundef captures(none) %1) local_unnamed_addr #0 {
  %3 = tail call ptr @Saig_ManReadBlif(ptr noundef %0) #16
  %4 = icmp eq ptr %3, null
  br i1 %4, label %61, label %5

5:                                                ; preds = %2
  %6 = tail call ptr @Fra_FraigInduction(ptr noundef nonnull %3, ptr noundef %1)
  %7 = icmp eq ptr %6, null
  br i1 %7, label %.sink.split, label %8

8:                                                ; preds = %5
  %9 = getelementptr inbounds nuw i8, ptr %1, i64 52
  %10 = load i32, ptr %9, align 4, !tbaa !83
  %.not = icmp eq i32 %10, 0
  br i1 %.not, label %14, label %11

11:                                               ; preds = %8
  %12 = tail call i32 (ptr, ...) @printf(ptr noundef nonnull dereferenceable(1) @.str.23)
  tail call void @Aig_ManPrintStats(ptr noundef nonnull %3) #16
  %13 = tail call i32 (ptr, ...) @printf(ptr noundef nonnull dereferenceable(1) @.str.24)
  tail call void @Aig_ManPrintStats(ptr noundef nonnull %6) #16
  br label %14

14:                                               ; preds = %11, %8
  tail call void @Aig_ManStop(ptr noundef nonnull %6) #16
  %15 = getelementptr inbounds nuw i8, ptr %3, i64 296
  %16 = load ptr, ptr %15, align 8, !tbaa !156
  %17 = tail call ptr @Aig_FileNameGenericAppend(ptr noundef %0, ptr noundef nonnull @.str.25) #16
  %18 = tail call noalias ptr @fopen(ptr noundef %17, ptr noundef nonnull @.str.26)
  %19 = getelementptr inbounds nuw i8, ptr %3, i64 32
  %20 = load ptr, ptr %19, align 8, !tbaa !57
  %21 = getelementptr i8, ptr %20, i64 4
  %.val4346 = load i32, ptr %21, align 4, !tbaa !48
  %22 = icmp sgt i32 %.val4346, 0
  br i1 %22, label %.lr.ph, label %.critedge

.lr.ph:                                           ; preds = %14
  %23 = getelementptr inbounds nuw i8, ptr %3, i64 256
  br label %24

24:                                               ; preds = %.lr.ph, %52
  %25 = phi ptr [ %20, %.lr.ph ], [ %53, %52 ]
  %indvars.iv = phi i64 [ 0, %.lr.ph ], [ %indvars.iv.next, %52 ]
  %.048 = phi i32 [ 0, %.lr.ph ], [ %.1, %52 ]
  %26 = getelementptr i8, ptr %25, i64 8
  %.val = load ptr, ptr %26, align 8, !tbaa !46
  %27 = getelementptr inbounds nuw ptr, ptr %.val, i64 %indvars.iv
  %28 = load ptr, ptr %27, align 8, !tbaa !51
  %29 = icmp eq ptr %28, null
  br i1 %29, label %52, label %30

30:                                               ; preds = %24
  %31 = load ptr, ptr %23, align 8, !tbaa !157
  %32 = getelementptr inbounds nuw i8, ptr %28, i64 36
  %33 = load i32, ptr %32, align 4, !tbaa !42
  %34 = sext i32 %33 to i64
  %35 = getelementptr inbounds ptr, ptr %31, i64 %34
  %36 = load ptr, ptr %35, align 8, !tbaa !44
  %.not41 = icmp eq ptr %36, null
  br i1 %.not41, label %52, label %37

37:                                               ; preds = %30
  %38 = getelementptr inbounds i32, ptr %16, i64 %34
  %39 = load i32, ptr %38, align 4, !tbaa !25
  %40 = getelementptr inbounds nuw i8, ptr %36, i64 36
  %41 = load i32, ptr %40, align 4, !tbaa !42
  %42 = sext i32 %41 to i64
  %43 = getelementptr inbounds i32, ptr %16, i64 %42
  %44 = load i32, ptr %43, align 4, !tbaa !25
  %45 = getelementptr i8, ptr %28, i64 24
  %.val44 = load i64, ptr %45, align 8
  %46 = getelementptr i8, ptr %36, i64 24
  %.val45 = load i64, ptr %46, align 8
  %47 = xor i64 %.val45, %.val44
  %48 = and i64 %47, 8
  %.not42 = icmp eq i64 %48, 0
  %49 = select i1 %.not42, i32 43, i32 45
  %50 = tail call i32 (ptr, ptr, ...) @fprintf(ptr noundef %18, ptr noundef nonnull @.str.27, i32 noundef %39, i32 noundef %44, i32 noundef %49) #16
  %51 = add nsw i32 %.048, 1
  %.pre = load ptr, ptr %19, align 8, !tbaa !57
  br label %52

52:                                               ; preds = %24, %37, %30
  %53 = phi ptr [ %25, %24 ], [ %.pre, %37 ], [ %25, %30 ]
  %.1 = phi i32 [ %.048, %24 ], [ %51, %37 ], [ %.048, %30 ]
  %indvars.iv.next = add nuw nsw i64 %indvars.iv, 1
  %54 = getelementptr i8, ptr %53, i64 4
  %.val43 = load i32, ptr %54, align 4, !tbaa !48
  %55 = sext i32 %.val43 to i64
  %56 = icmp slt i64 %indvars.iv.next, %55
  br i1 %56, label %24, label %.critedge, !llvm.loop !158

.critedge:                                        ; preds = %52, %14
  %.0.lcssa = phi i32 [ 0, %14 ], [ %.1, %52 ]
  %57 = tail call i32 @fclose(ptr noundef %18)
  %58 = load i32, ptr %9, align 4, !tbaa !83
  %.not40 = icmp eq i32 %58, 0
  br i1 %.not40, label %.sink.split, label %59

59:                                               ; preds = %.critedge
  %60 = tail call i32 (ptr, ...) @printf(ptr noundef nonnull dereferenceable(1) @.str.28, i32 noundef %.0.lcssa, ptr noundef %17)
  br label %.sink.split

.sink.split:                                      ; preds = %.critedge, %59, %5
  %.035.ph = phi i32 [ 0, %5 ], [ 1, %59 ], [ 1, %.critedge ]
  tail call void @Aig_ManStop(ptr noundef nonnull %3) #16
  br label %61

61:                                               ; preds = %.sink.split, %2
  %.035 = phi i32 [ 0, %2 ], [ %.035.ph, %.sink.split ]
  ret i32 %.035
}